target datalayout = "e-m:e-p270:32:32-p271:32:32-p272:64:64-i64:64-i128:128-f80:128-n8:16:32:64-S128"
target triple = "x86_64-pc-linux-gnu"

@.str.24 = private unnamed_addr constant [28 x i8] c"../openssl/test/test_test.c\00", align 1
@stderr = external global ptr, align 8
@.str.47 = private unnamed_addr constant [19 x i8] c"# FATAL: %s != %d\0A\00", align 1
@.str.48 = private unnamed_addr constant [21 x i8] c"TEST_uint_eq(3u, 3u)\00", align 1
@.str.49 = private unnamed_addr constant [3 x i8] c"3u\00", align 1
@.str.50 = private unnamed_addr constant [21 x i8] c"TEST_uint_eq(3u, 5u)\00", align 1
@.str.51 = private unnamed_addr constant [3 x i8] c"5u\00", align 1
@.str.52 = private unnamed_addr constant [21 x i8] c"TEST_uint_ne(4u, 2u)\00", align 1
@.str.53 = private unnamed_addr constant [3 x i8] c"4u\00", align 1
@.str.54 = private unnamed_addr constant [3 x i8] c"2u\00", align 1
@.str.55 = private unnamed_addr constant [21 x i8] c"TEST_uint_ne(6u, 6u)\00", align 1
@.str.56 = private unnamed_addr constant [3 x i8] c"6u\00", align 1
@.str.57 = private unnamed_addr constant [21 x i8] c"TEST_uint_lt(5u, 9u)\00", align 1
@.str.58 = private unnamed_addr constant [3 x i8] c"9u\00", align 1
@.str.59 = private unnamed_addr constant [21 x i8] c"TEST_uint_lt(9u, 5u)\00", align 1
@.str.60 = private unnamed_addr constant [21 x i8] c"TEST_uint_le(5u, 9u)\00", align 1
@.str.61 = private unnamed_addr constant [21 x i8] c"TEST_uint_le(7u, 7u)\00", align 1
@.str.62 = private unnamed_addr constant [3 x i8] c"7u\00", align 1
@.str.63 = private unnamed_addr constant [21 x i8] c"TEST_uint_le(9u, 5u)\00", align 1
@.str.64 = private unnamed_addr constant [22 x i8] c"TEST_uint_gt(11u, 1u)\00", align 1
@.str.65 = private unnamed_addr constant [4 x i8] c"11u\00", align 1
@.str.66 = private unnamed_addr constant [3 x i8] c"1u\00", align 1
@.str.67 = private unnamed_addr constant [22 x i8] c"TEST_uint_gt(1u, 11u)\00", align 1
@.str.68 = private unnamed_addr constant [22 x i8] c"TEST_uint_ge(11u, 1u)\00", align 1
@.str.69 = private unnamed_addr constant [21 x i8] c"TEST_uint_ge(6u, 6u)\00", align 1
@.str.70 = private unnamed_addr constant [22 x i8] c"TEST_uint_ge(1u, 11u)\00", align 1

; Function Attrs: nounwind uwtable
define internal i32 @test_case(i32 noundef %0, ptr noundef %1, i32 noundef %2) #0 {
  %4 = alloca i32, align 4
  %5 = alloca i32, align 4
  %6 = alloca ptr, align 8
  %7 = alloca i32, align 4
  store i32 %0, ptr %5, align 4, !tbaa !4
  store ptr %1, ptr %6, align 8, !tbaa !9
  store i32 %2, ptr %7, align 4, !tbaa !4
  %8 = load i32, ptr %7, align 4, !tbaa !4
  %9 = load i32, ptr %5, align 4, !tbaa !4
  %10 = icmp ne i32 %8, %9
  br i1 %10, label %11, label %16

11:                                               ; preds = %3
  %12 = load ptr, ptr @stderr, align 8, !tbaa !16
  %13 = load ptr, ptr %6, align 8, !tbaa !9
  %14 = load i32, ptr %5, align 4, !tbaa !4
  %15 = call i32 (ptr, ptr, ...) @fprintf(ptr noundef %12, ptr noundef @.str.47, ptr noundef %13, i32 noundef %14) #7
  store i32 0, ptr %4, align 4
  br label %17

16:                                               ; preds = %3
  store i32 1, ptr %4, align 4
  br label %17

17:                                               ; preds = %16, %11
  %18 = load i32, ptr %4, align 4
  ret i32 %18
}

; Function Attrs: nounwind uwtable
define internal i32 @test_uint() #0 {
  %1 = alloca i32, align 4
  %2 = call i32 @test_uint_eq(ptr noundef @.str.24, i32 noundef 58, ptr noundef @.str.49, ptr noundef @.str.49, i32 noundef 3, i32 noundef 3)
  %3 = call i32 @test_case(i32 noundef 1, ptr noundef @.str.48, i32 noundef %2)
  %4 = icmp ne i32 %3, 0
  br i1 %4, label %5, label %57

5:                                                ; preds = %0
  %6 = call i32 @test_uint_eq(ptr noundef @.str.24, i32 noundef 59, ptr noundef @.str.49, ptr noundef @.str.51, i32 noundef 3, i32 noundef 5)
  %7 = call i32 @test_case(i32 noundef 0, ptr noundef @.str.50, i32 noundef %6)
  %8 = icmp ne i32 %7, 0
  br i1 %8, label %9, label %57

9:                                                ; preds = %5
  %10 = call i32 @test_uint_ne(ptr noundef @.str.24, i32 noundef 60, ptr noundef @.str.53, ptr noundef @.str.54, i32 noundef 4, i32 noundef 2)
  %11 = call i32 @test_case(i32 noundef 1, ptr noundef @.str.52, i32 noundef %10)
  %12 = icmp ne i32 %11, 0
  br i1 %12, label %13, label %57

13:                                               ; preds = %9
  %14 = call i32 @test_uint_ne(ptr noundef @.str.24, i32 noundef 61, ptr noundef @.str.56, ptr noundef @.str.56, i32 noundef 6, i32 noundef 6)
  %15 = call i32 @test_case(i32 noundef 0, ptr noundef @.str.55, i32 noundef %14)
  %16 = icmp ne i32 %15, 0
  br i1 %16, label %17, label %57

17:                                               ; preds = %13
  %18 = call i32 @test_uint_lt(ptr noundef @.str.24, i32 noundef 62, ptr noundef @.str.51, ptr noundef @.str.58, i32 noundef 5, i32 noundef 9)
  %19 = call i32 @test_case(i32 noundef 1, ptr noundef @.str.57, i32 noundef %18)
  %20 = icmp ne i32 %19, 0
  br i1 %20, label %21, label %57

21:                                               ; preds = %17
  %22 = call i32 @test_uint_lt(ptr noundef @.str.24, i32 noundef 63, ptr noundef @.str.58, ptr noundef @.str.51, i32 noundef 9, i32 noundef 5)
  %23 = call i32 @test_case(i32 noundef 0, ptr noundef @.str.59, i32 noundef %22)
  %24 = icmp ne i32 %23, 0
  br i1 %24, label %25, label %57

25:                                               ; preds = %21
  %26 = call i32 @test_uint_le(ptr noundef @.str.24, i32 noundef 64, ptr noundef @.str.51, ptr noundef @.str.58, i32 noundef 5, i32 noundef 9)
  %27 = call i32 @test_case(i32 noundef 1, ptr noundef @.str.60, i32 noundef %26)
  %28 = icmp ne i32 %27, 0
  br i1 %28, label %29, label %57

29:                                               ; preds = %25
  %30 = call i32 @test_uint_le(ptr noundef @.str.24, i32 noundef 65, ptr noundef @.str.62, ptr noundef @.str.62, i32 noundef 7, i32 noundef 7)
  %31 = call i32 @test_case(i32 noundef 1, ptr noundef @.str.61, i32 noundef %30)
  %32 = icmp ne i32 %31, 0
  br i1 %32, label %33, label %57

33:                                               ; preds = %29
  %34 = call i32 @test_uint_le(ptr noundef @.str.24, i32 noundef 66, ptr noundef @.str.58, ptr noundef @.str.51, i32 noundef 9, i32 noundef 5)
  %35 = call i32 @test_case(i32 noundef 0, ptr noundef @.str.63, i32 noundef %34)
  %36 = icmp ne i32 %35, 0
  br i1 %36, label %37, label %57

37:                                               ; preds = %33
  %38 = call i32 @test_uint_gt(ptr noundef @.str.24, i32 noundef 67, ptr noundef @.str.65, ptr noundef @.str.66, i32 noundef 11, i32 noundef 1)
  %39 = call i32 @test_case(i32 noundef 1, ptr noundef @.str.64, i32 noundef %38)
  %40 = icmp ne i32 %39, 0
  br i1 %40, label %41, label %57

41:                                               ; preds = %37
  %42 = call i32 @test_uint_gt(ptr noundef @.str.24, i32 noundef 68, ptr noundef @.str.66, ptr noundef @.str.65, i32 noundef 1, i32 noundef 11)
  %43 = call i32 @test_case(i32 noundef 0, ptr noundef @.str.67, i32 noundef %42)
  %44 = icmp ne i32 %43, 0
  br i1 %44, label %45, label %57

45:                                               ; preds = %41
  %46 = call i32 @test_uint_ge(ptr noundef @.str.24, i32 noundef 69, ptr noundef @.str.65, ptr noundef @.str.66, i32 noundef 11, i32 noundef 1)
  %47 = call i32 @test_case(i32 noundef 1, ptr noundef @.str.68, i32 noundef %46)
  %48 = icmp ne i32 %47, 0
  br i1 %48, label %49, label %57

49:                                               ; preds = %45
  %50 = call i32 @test_uint_ge(ptr noundef @.str.24, i32 noundef 70, ptr noundef @.str.56, ptr noundef @.str.56, i32 noundef 6, i32 noundef 6)
  %51 = call i32 @test_case(i32 noundef 1, ptr noundef @.str.69, i32 noundef %50)
  %52 = icmp ne i32 %51, 0
  br i1 %52, label %53, label %57

53:                                               ; preds = %49
  %54 = call i32 @test_uint_ge(ptr noundef @.str.24, i32 noundef 71, ptr noundef @.str.66, ptr noundef @.str.65, i32 noundef 1, i32 noundef 11)
  %55 = call i32 @test_case(i32 noundef 0, ptr noundef @.str.70, i32 noundef %54)
  %56 = icmp ne i32 %55, 0
  br i1 %56, label %58, label %57

57:                                               ; preds = %53, %49, %45, %41, %37, %33, %29, %25, %21, %17, %13, %9, %5, %0
  br label %59

58:                                               ; preds = %53
  store i32 1, ptr %1, align 4
  br label %60

59:                                               ; preds = %57
  store i32 0, ptr %1, align 4
  br label %60

60:                                               ; preds = %59, %58
  %61 = load i32, ptr %1, align 4
  ret i32 %61
}